target datalayout = "e-m:e-p270:32:32-p271:32:32-p272:64:64-i64:64-i128:128-f80:128-n8:16:32:64-S128"
target triple = "x86_64-pc-linux-gnu"

%"class.llvm::StringRef" = type { ptr, i64 }
%"struct.clang::format::FormatToken" = type <{ %"class.clang::Token", %"class.llvm::StringRef", %"class.std::shared_ptr", %"class.clang::SourceRange", i8, i16, i8, i32, i32, i32, i32, i32, i32, i32, i32, i32, i16, [2 x i8], i32, i32, i32, i32, i32, i32, i32, i32, i32, i32, [4 x i8], %"class.llvm::SmallVector", i32, i32, ptr, ptr, ptr, ptr, i8, i8, i8, i8, i8, i8, [2 x i8], %"class.llvm::SmallVector.0", %"class.std::optional", i8, [7 x i8] }>
%"class.clang::Token" = type <{ i32, i32, ptr, i16, i16, [4 x i8] }>
%"class.std::shared_ptr" = type { %"class.std::__shared_ptr" }
%"class.std::__shared_ptr" = type { ptr, %"class.std::__shared_count" }
%"class.std::__shared_count" = type { ptr }
%"class.clang::SourceRange" = type { %"class.clang::SourceLocation", %"class.clang::SourceLocation" }
%"class.clang::SourceLocation" = type { i32 }
%"class.llvm::SmallVector" = type { %"class.llvm::SmallVectorImpl", %"struct.llvm::SmallVectorStorage" }
%"class.llvm::SmallVectorImpl" = type { %"class.llvm::SmallVectorTemplateBase" }
%"class.llvm::SmallVectorTemplateBase" = type { %"class.llvm::SmallVectorTemplateCommon" }
%"class.llvm::SmallVectorTemplateCommon" = type { %"class.llvm::SmallVectorBase" }
%"class.llvm::SmallVectorBase" = type { ptr, i32, i32 }
%"struct.llvm::SmallVectorStorage" = type { [16 x i8] }
%"class.llvm::SmallVector.0" = type { %"class.llvm::SmallVectorImpl.1", %"struct.llvm::SmallVectorStorage.4" }
%"class.llvm::SmallVectorImpl.1" = type { %"class.llvm::SmallVectorTemplateBase.2" }
%"class.llvm::SmallVectorTemplateBase.2" = type { %"class.llvm::SmallVectorTemplateCommon.3" }
%"class.llvm::SmallVectorTemplateCommon.3" = type { %"class.llvm::SmallVectorBase" }
%"struct.llvm::SmallVectorStorage.4" = type { [8 x i8] }
%"class.std::optional" = type { %"struct.std::_Optional_base" }
%"struct.std::_Optional_base" = type { %"struct.std::_Optional_payload" }
%"struct.std::_Optional_payload" = type { %"struct.std::_Optional_payload.base", [7 x i8] }
%"struct.std::_Optional_payload.base" = type { %"struct.std::_Optional_payload_base.base" }
%"struct.std::_Optional_payload_base.base" = type <{ %"union.std::_Optional_payload_base<clang::format::MacroExpansion>::_Storage", i8 }>
%"union.std::_Optional_payload_base<clang::format::MacroExpansion>::_Storage" = type { %"struct.clang::format::MacroExpansion" }
%"struct.clang::format::MacroExpansion" = type { i32, %"class.llvm::SmallVector.6", i32, i32 }
%"class.llvm::SmallVector.6" = type { %"class.llvm::SmallVectorImpl.7", %"struct.llvm::SmallVectorStorage.10" }
%"class.llvm::SmallVectorImpl.7" = type { %"class.llvm::SmallVectorTemplateBase.8" }
%"class.llvm::SmallVectorTemplateBase.8" = type { %"class.llvm::SmallVectorTemplateCommon.9" }
%"class.llvm::SmallVectorTemplateCommon.9" = type { %"class.llvm::SmallVectorBase" }
%"struct.llvm::SmallVectorStorage.10" = type { [8 x i8] }
%"class.clang::format::BreakableToken" = type { ptr, ptr, i8, i32, ptr }
%"class.clang::format::BreakableComment" = type { %"class.clang::format::BreakableToken", %"class.llvm::SmallVector.44", %"class.llvm::SmallVector.44", %"class.llvm::SmallVector.49", %"class.llvm::SmallVector.51", i32, %"class.llvm::StringRef" }
%"class.llvm::SmallVector.44" = type { %"class.llvm::SmallVectorImpl.45", %"struct.llvm::SmallVectorStorage.48" }
%"class.llvm::SmallVectorImpl.45" = type { %"class.llvm::SmallVectorTemplateBase.46" }
%"class.llvm::SmallVectorTemplateBase.46" = type { %"class.llvm::SmallVectorTemplateCommon.47" }
%"class.llvm::SmallVectorTemplateCommon.47" = type { %"class.llvm::SmallVectorBase" }
%"struct.llvm::SmallVectorStorage.48" = type { [256 x i8] }
%"class.llvm::SmallVector.49" = type { %"class.llvm::SmallVectorImpl.7", %"struct.llvm::SmallVectorStorage.50" }
%"struct.llvm::SmallVectorStorage.50" = type { [128 x i8] }
%"class.llvm::SmallVector.51" = type { %"class.llvm::SmallVectorImpl.52", %"struct.llvm::SmallVectorStorage.55" }
%"class.llvm::SmallVectorImpl.52" = type { %"class.llvm::SmallVectorTemplateBase.53" }
%"class.llvm::SmallVectorTemplateBase.53" = type { %"class.llvm::SmallVectorTemplateCommon.54" }
%"class.llvm::SmallVectorTemplateCommon.54" = type { %"class.llvm::SmallVectorBase" }
%"struct.llvm::SmallVectorStorage.55" = type { [64 x i8] }

@.str.26 = private unnamed_addr constant [1 x i8] zeroinitializer, align 1

; Function Attrs: mustprogress nounwind uwtable
define linkonce_odr hidden noundef i64 @_ZNSt11char_traitsIcE6lengthEPKc(ptr noundef %0) #0 comdat align 2 {
  %2 = alloca ptr, align 8
  store ptr %0, ptr %2, align 8
  %3 = load ptr, ptr %2, align 8
  %4 = call i64 @strlen(ptr noundef %3) #4
  ret i64 %4
}

; Function Attrs: mustprogress nounwind uwtable
define linkonce_odr hidden noundef ptr @_ZNK4llvm25SmallVectorTemplateCommonINS_9StringRefEvE5beginEv(ptr noundef nonnull align 8 dereferenceable(16) %0) #0 comdat align 2 {
  %2 = alloca ptr, align 8
  store ptr %0, ptr %2, align 8
  %3 = load ptr, ptr %2, align 8
  %4 = getelementptr inbounds nuw %"class.llvm::SmallVectorBase", ptr %3, i32 0, i32 0
  %5 = load ptr, ptr %4, align 8
  ret ptr %5
}

; Function Attrs: mustprogress nounwind uwtable
define linkonce_odr hidden noundef ptr @_ZNK4llvm25SmallVectorTemplateCommonIPN5clang6format11FormatTokenEvE5beginEv(ptr noundef nonnull align 8 dereferenceable(16) %0) #0 comdat align 2 {
  %2 = alloca ptr, align 8
  store ptr %0, ptr %2, align 8
  %3 = load ptr, ptr %2, align 8
  %4 = getelementptr inbounds nuw %"class.llvm::SmallVectorBase", ptr %3, i32 0, i32 0
  %5 = load ptr, ptr %4, align 8
  ret ptr %5
}

; Function Attrs: mustprogress nounwind uwtable
define linkonce_odr hidden void @_ZN4llvm9StringRefC2EPKc(ptr noundef nonnull align 8 dereferenceable(16) %0, ptr noundef %1) unnamed_addr #0 comdat align 2 {
  %3 = alloca ptr, align 8
  %4 = alloca ptr, align 8
  store ptr %0, ptr %3, align 8
  store ptr %1, ptr %4, align 8
  %5 = load ptr, ptr %3, align 8
  %6 = getelementptr inbounds nuw %"class.llvm::StringRef", ptr %5, i32 0, i32 0
  %7 = load ptr, ptr %4, align 8
  store ptr %7, ptr %6, align 8
  %8 = getelementptr inbounds nuw %"class.llvm::StringRef", ptr %5, i32 0, i32 1
  %9 = load ptr, ptr %4, align 8
  %10 = icmp ne ptr %9, null
  br i1 %10, label %11, label %14

11:                                               ; preds = %2
  %12 = load ptr, ptr %4, align 8
  %13 = call noundef i64 @_ZNSt11char_traitsIcE6lengthEPKc(ptr noundef %12)
  br label %15

14:                                               ; preds = %2
  br label %15

15:                                               ; preds = %14, %11
  %16 = phi i64 [ %13, %11 ], [ 0, %14 ]
  store i64 %16, ptr %8, align 8
  ret void
}

; Function Attrs: mustprogress nounwind uwtable
define dso_local noundef nonnull align 8 dereferenceable(305) ptr @_ZNK5clang6format16BreakableComment7tokenAtEj(ptr noundef nonnull align 8 dereferenceable(824) %0, i32 noundef %1) #0 align 2 {
  %3 = alloca ptr, align 8
  %4 = alloca i32, align 4
  store ptr %0, ptr %3, align 8
  store i32 %1, ptr %4, align 4
  %5 = load ptr, ptr %3, align 8
  %6 = getelementptr inbounds nuw %"class.clang::format::BreakableComment", ptr %5, i32 0, i32 3
  %7 = load i32, ptr %4, align 4
  %8 = zext i32 %7 to i64
  %9 = call noundef nonnull align 8 dereferenceable(8) ptr @_ZNK4llvm25SmallVectorTemplateCommonIPN5clang6format11FormatTokenEvEixEm(ptr noundef nonnull align 8 dereferenceable(16) %6, i64 noundef %8)
  %10 = load ptr, ptr %9, align 8
  %11 = icmp ne ptr %10, null
  br i1 %11, label %12, label %18

12:                                               ; preds = %2
  %13 = getelementptr inbounds nuw %"class.clang::format::BreakableComment", ptr %5, i32 0, i32 3
  %14 = load i32, ptr %4, align 4
  %15 = zext i32 %14 to i64
  %16 = call noundef nonnull align 8 dereferenceable(8) ptr @_ZNK4llvm25SmallVectorTemplateCommonIPN5clang6format11FormatTokenEvEixEm(ptr noundef nonnull align 8 dereferenceable(16) %13, i64 noundef %15)
  %17 = load ptr, ptr %16, align 8
  br label %21

18:                                               ; preds = %2
  %19 = getelementptr inbounds nuw %"class.clang::format::BreakableToken", ptr %5, i32 0, i32 1
  %20 = load ptr, ptr %19, align 8
  br label %21

21:                                               ; preds = %18, %12
  %22 = phi ptr [ %17, %12 ], [ %20, %18 ]
  ret ptr %22
}

; Function Attrs: mustprogress nounwind uwtable
define linkonce_odr hidden noundef i64 @_ZNK4llvm9StringRef4sizeEv(ptr noundef nonnull align 8 dereferenceable(16) %0) #0 comdat align 2 {
  %2 = alloca ptr, align 8
  store ptr %0, ptr %2, align 8
  %3 = load ptr, ptr %2, align 8
  %4 = getelementptr inbounds nuw %"class.llvm::StringRef", ptr %3, i32 0, i32 1
  %5 = load i64, ptr %4, align 8
  ret i64 %5
}

; Function Attrs: mustprogress nounwind uwtable
define linkonce_odr hidden noundef ptr @_ZNK4llvm9StringRef4dataEv(ptr noundef nonnull align 8 dereferenceable(16) %0) #0 comdat align 2 {
  %2 = alloca ptr, align 8
  store ptr %0, ptr %2, align 8
  %3 = load ptr, ptr %2, align 8
  %4 = getelementptr inbounds nuw %"class.llvm::StringRef", ptr %3, i32 0, i32 0
  %5 = load ptr, ptr %4, align 8
  ret ptr %5
}

; Function Attrs: mustprogress nounwind uwtable
define linkonce_odr hidden noundef nonnull align 8 dereferenceable(16) ptr @_ZNK4llvm25SmallVectorTemplateCommonINS_9StringRefEvEixEm(ptr noundef nonnull align 8 dereferenceable(16) %0, i64 noundef %1) #0 comdat align 2 {
  %3 = alloca ptr, align 8
  %4 = alloca i64, align 8
  store ptr %0, ptr %3, align 8
  store i64 %1, ptr %4, align 8
  %5 = load ptr, ptr %3, align 8
  %6 = call noundef ptr @_ZNK4llvm25SmallVectorTemplateCommonINS_9StringRefEvE5beginEv(ptr noundef nonnull align 8 dereferenceable(16) %5)
  %7 = load i64, ptr %4, align 8
  %8 = getelementptr inbounds %"class.llvm::StringRef", ptr %6, i64 %7
  ret ptr %8
}

; Function Attrs: mustprogress nounwind uwtable
define linkonce_odr hidden noundef nonnull align 8 dereferenceable(8) ptr @_ZNK4llvm25SmallVectorTemplateCommonIPN5clang6format11FormatTokenEvEixEm(ptr noundef nonnull align 8 dereferenceable(16) %0, i64 noundef %1) #0 comdat align 2 {
  %3 = alloca ptr, align 8
  %4 = alloca i64, align 8
  store ptr %0, ptr %3, align 8
  store i64 %1, ptr %4, align 8
  %5 = load ptr, ptr %3, align 8
  %6 = call noundef ptr @_ZNK4llvm25SmallVectorTemplateCommonIPN5clang6format11FormatTokenEvE5beginEv(ptr noundef nonnull align 8 dereferenceable(16) %5)
  %7 = load i64, ptr %4, align 8
  %8 = getelementptr inbounds ptr, ptr %6, i64 %7
  ret ptr %8
}

; Function Attrs: mustprogress nounwind uwtable
define dso_local void @_ZNK5clang6format27BreakableLineCommentSection6reflowEjRNS0_17WhitespaceManagerE(ptr noundef nonnull align 8 dereferenceable(1712) %0, i32 noundef %1, ptr noundef nonnull align 8 dereferenceable(2257) %2) unnamed_addr #0 align 2 {
  %4 = alloca ptr, align 8
  %5 = alloca i32, align 4
  %6 = alloca ptr, align 8
  %7 = alloca i32, align 4
  %8 = alloca i32, align 4
  %9 = alloca %"class.llvm::StringRef", align 8
  %10 = alloca %"class.llvm::StringRef", align 8
  %11 = alloca i32, align 4
  %12 = alloca i32, align 4
  %13 = alloca %"class.llvm::StringRef", align 8
  %14 = alloca %"class.llvm::StringRef", align 8
  store ptr %0, ptr %4, align 8
  store i32 %1, ptr %5, align 4
  store ptr %2, ptr %6, align 8
  %15 = load ptr, ptr %4, align 8
  %16 = load i32, ptr %5, align 4
  %17 = icmp ugt i32 %16, 0
  br i1 %17, label %18, label %40

18:                                               ; preds = %3
  %19 = getelementptr inbounds nuw %"class.clang::format::BreakableComment", ptr %15, i32 0, i32 3
  %20 = load i32, ptr %5, align 4
  %21 = zext i32 %20 to i64
  %22 = call noundef nonnull align 8 dereferenceable(8) ptr @_ZNK4llvm25SmallVectorTemplateCommonIPN5clang6format11FormatTokenEvEixEm(ptr noundef nonnull align 8 dereferenceable(16) %19, i64 noundef %21)
  %23 = load ptr, ptr %22, align 8
  %24 = getelementptr inbounds nuw %"class.clang::format::BreakableComment", ptr %15, i32 0, i32 3
  %25 = load i32, ptr %5, align 4
  %26 = sub i32 %25, 1
  %27 = zext i32 %26 to i64
  %28 = call noundef nonnull align 8 dereferenceable(8) ptr @_ZNK4llvm25SmallVectorTemplateCommonIPN5clang6format11FormatTokenEvEixEm(ptr noundef nonnull align 8 dereferenceable(16) %24, i64 noundef %27)
  %29 = load ptr, ptr %28, align 8
  %30 = icmp ne ptr %23, %29
  br i1 %30, label %31, label %40

31:                                               ; preds = %18
  %32 = load ptr, ptr %6, align 8
  %33 = getelementptr inbounds nuw %"class.clang::format::BreakableComment", ptr %15, i32 0, i32 3
  %34 = load i32, ptr %5, align 4
  %35 = zext i32 %34 to i64
  %36 = call noundef nonnull align 8 dereferenceable(8) ptr @_ZNK4llvm25SmallVectorTemplateCommonIPN5clang6format11FormatTokenEvEixEm(ptr noundef nonnull align 8 dereferenceable(16) %33, i64 noundef %35)
  %37 = load ptr, ptr %36, align 8
  %38 = getelementptr inbounds nuw %"class.clang::format::BreakableComment", ptr %15, i32 0, i32 5
  %39 = load i32, ptr %38, align 8
  call void @_ZN5clang6format17WhitespaceManager17replaceWhitespaceERNS0_11FormatTokenEjjjbb(ptr noundef nonnull align 8 dereferenceable(2257) %32, ptr noundef nonnull align 8 dereferenceable(305) %37, i32 noundef 0, i32 noundef 0, i32 noundef %39, i1 noundef zeroext true, i1 noundef zeroext false)
  br label %95

40:                                               ; preds = %18, %3
  %41 = load i32, ptr %5, align 4
  %42 = icmp ugt i32 %41, 0
  br i1 %42, label %43, label %94

43:                                               ; preds = %40
  %44 = getelementptr inbounds nuw %"class.clang::format::BreakableComment", ptr %15, i32 0, i32 1
  %45 = load i32, ptr %5, align 4
  %46 = sub i32 %45, 1
  %47 = zext i32 %46 to i64
  %48 = call noundef nonnull align 8 dereferenceable(16) ptr @_ZNK4llvm25SmallVectorTemplateCommonINS_9StringRefEvEixEm(ptr noundef nonnull align 8 dereferenceable(16) %44, i64 noundef %47)
  %49 = call noundef ptr @_ZNK4llvm9StringRef4dataEv(ptr noundef nonnull align 8 dereferenceable(16) %48)
  %50 = getelementptr inbounds nuw %"class.clang::format::BreakableComment", ptr %15, i32 0, i32 1
  %51 = load i32, ptr %5, align 4
  %52 = sub i32 %51, 1
  %53 = zext i32 %52 to i64
  %54 = call noundef nonnull align 8 dereferenceable(16) ptr @_ZNK4llvm25SmallVectorTemplateCommonINS_9StringRefEvEixEm(ptr noundef nonnull align 8 dereferenceable(16) %50, i64 noundef %53)
  %55 = call noundef i64 @_ZNK4llvm9StringRef4sizeEv(ptr noundef nonnull align 8 dereferenceable(16) %54)
  %56 = getelementptr inbounds i8, ptr %49, i64 %55
  %57 = load i32, ptr %5, align 4
  %58 = sub i32 %57, 1
  %59 = call noundef nonnull align 8 dereferenceable(305) ptr @_ZNK5clang6format16BreakableComment7tokenAtEj(ptr noundef nonnull align 8 dereferenceable(824) %15, i32 noundef %58)
  %60 = getelementptr inbounds nuw %"struct.clang::format::FormatToken", ptr %59, i32 0, i32 1
  %61 = call noundef ptr @_ZNK4llvm9StringRef4dataEv(ptr noundef nonnull align 8 dereferenceable(16) %60)
  %62 = ptrtoint ptr %56 to i64
  %63 = ptrtoint ptr %61 to i64
  %64 = sub i64 %62, %63
  %65 = trunc i64 %64 to i32
  store i32 %65, ptr %7, align 4
  %66 = getelementptr inbounds nuw %"class.clang::format::BreakableComment", ptr %15, i32 0, i32 1
  %67 = load i32, ptr %5, align 4
  %68 = zext i32 %67 to i64
  %69 = call noundef nonnull align 8 dereferenceable(16) ptr @_ZNK4llvm25SmallVectorTemplateCommonINS_9StringRefEvEixEm(ptr noundef nonnull align 8 dereferenceable(16) %66, i64 noundef %68)
  %70 = call noundef ptr @_ZNK4llvm9StringRef4dataEv(ptr noundef nonnull align 8 dereferenceable(16) %69)
  %71 = load i32, ptr %5, align 4
  %72 = call noundef nonnull align 8 dereferenceable(305) ptr @_ZNK5clang6format16BreakableComment7tokenAtEj(ptr noundef nonnull align 8 dereferenceable(824) %15, i32 noundef %71)
  %73 = getelementptr inbounds nuw %"struct.clang::format::FormatToken", ptr %72, i32 0, i32 1
  %74 = call noundef ptr @_ZNK4llvm9StringRef4dataEv(ptr noundef nonnull align 8 dereferenceable(16) %73)
  %75 = ptrtoint ptr %70 to i64
  %76 = ptrtoint ptr %74 to i64
  %77 = sub i64 %75, %76
  %78 = load i32, ptr %7, align 4
  %79 = zext i32 %78 to i64
  %80 = sub nsw i64 %77, %79
  %81 = trunc i64 %80 to i32
  store i32 %81, ptr %8, align 4
  %82 = load ptr, ptr %6, align 8
  %83 = getelementptr inbounds nuw %"class.clang::format::BreakableComment", ptr %15, i32 0, i32 3
  %84 = load i32, ptr %5, align 4
  %85 = zext i32 %84 to i64
  %86 = call noundef nonnull align 8 dereferenceable(8) ptr @_ZNK4llvm25SmallVectorTemplateCommonIPN5clang6format11FormatTokenEvEixEm(ptr noundef nonnull align 8 dereferenceable(16) %83, i64 noundef %85)
  %87 = load ptr, ptr %86, align 8
  %88 = load i32, ptr %7, align 4
  %89 = load i32, ptr %8, align 4
  call void @_ZN4llvm9StringRefC2EPKc(ptr noundef nonnull align 8 dereferenceable(16) %9, ptr noundef @.str.26)
  call void @_ZN4llvm9StringRefC2EPKc(ptr noundef nonnull align 8 dereferenceable(16) %10, ptr noundef @.str.26)
  %90 = getelementptr inbounds nuw { ptr, i64 }, ptr %9, i32 0, i32 0
  %91 = load ptr, ptr %90, align 8
  %92 = getelementptr inbounds nuw { ptr, i64 }, ptr %9, i32 0, i32 1
  %93 = load i64, ptr %92, align 8
  call void @_ZN5clang6format17WhitespaceManager24replaceWhitespaceInTokenERKNS0_11FormatTokenEjjN4llvm9StringRefES6_bji(ptr noundef nonnull align 8 dereferenceable(2257) %82, ptr noundef nonnull align 8 dereferenceable(305) %87, i32 noundef %88, i32 noundef %89, ptr %91, i64 %93, ptr noundef byval(%"class.llvm::StringRef") align 8 %10, i1 noundef zeroext false, i32 noundef 0, i32 noundef 0)
  br label %94

94:                                               ; preds = %43, %40
  br label %95

95:                                               ; preds = %94, %31
  %96 = getelementptr inbounds nuw %"class.clang::format::BreakableComment", ptr %15, i32 0, i32 1
  %97 = load i32, ptr %5, align 4
  %98 = zext i32 %97 to i64
  %99 = call noundef nonnull align 8 dereferenceable(16) ptr @_ZNK4llvm25SmallVectorTemplateCommonINS_9StringRefEvEixEm(ptr noundef nonnull align 8 dereferenceable(16) %96, i64 noundef %98)
  %100 = call noundef ptr @_ZNK4llvm9StringRef4dataEv(ptr noundef nonnull align 8 dereferenceable(16) %99)
  %101 = load i32, ptr %5, align 4
  %102 = call noundef nonnull align 8 dereferenceable(305) ptr @_ZNK5clang6format16BreakableComment7tokenAtEj(ptr noundef nonnull align 8 dereferenceable(824) %15, i32 noundef %101)
  %103 = getelementptr inbounds nuw %"struct.clang::format::FormatToken", ptr %102, i32 0, i32 1
  %104 = call noundef ptr @_ZNK4llvm9StringRef4dataEv(ptr noundef nonnull align 8 dereferenceable(16) %103)
  %105 = ptrtoint ptr %100 to i64
  %106 = ptrtoint ptr %104 to i64
  %107 = sub i64 %105, %106
  %108 = trunc i64 %107 to i32
  store i32 %108, ptr %11, align 4
  %109 = getelementptr inbounds nuw %"class.clang::format::BreakableComment", ptr %15, i32 0, i32 2
  %110 = load i32, ptr %5, align 4
  %111 = zext i32 %110 to i64
  %112 = call noundef nonnull align 8 dereferenceable(16) ptr @_ZNK4llvm25SmallVectorTemplateCommonINS_9StringRefEvEixEm(ptr noundef nonnull align 8 dereferenceable(16) %109, i64 noundef %111)
  %113 = call noundef ptr @_ZNK4llvm9StringRef4dataEv(ptr noundef nonnull align 8 dereferenceable(16) %112)
  %114 = getelementptr inbounds nuw %"class.clang::format::BreakableComment", ptr %15, i32 0, i32 1
  %115 = load i32, ptr %5, align 4
  %116 = zext i32 %115 to i64
  %117 = call noundef nonnull align 8 dereferenceable(16) ptr @_ZNK4llvm25SmallVectorTemplateCommonINS_9StringRefEvEixEm(ptr noundef nonnull align 8 dereferenceable(16) %114, i64 noundef %116)
  %118 = call noundef ptr @_ZNK4llvm9StringRef4dataEv(ptr noundef nonnull align 8 dereferenceable(16) %117)
  %119 = ptrtoint ptr %113 to i64
  %120 = ptrtoint ptr %118 to i64
  %121 = sub i64 %119, %120
  %122 = trunc i64 %121 to i32
  store i32 %122, ptr %12, align 4
  %123 = load ptr, ptr %6, align 8
  %124 = getelementptr inbounds nuw %"class.clang::format::BreakableComment", ptr %15, i32 0, i32 3
  %125 = load i32, ptr %5, align 4
  %126 = zext i32 %125 to i64
  %127 = call noundef nonnull align 8 dereferenceable(8) ptr @_ZNK4llvm25SmallVectorTemplateCommonIPN5clang6format11FormatTokenEvEixEm(ptr noundef nonnull align 8 dereferenceable(16) %124, i64 noundef %126)
  %128 = load ptr, ptr %127, align 8
  %129 = load i32, ptr %11, align 4
  %130 = load i32, ptr %12, align 4
  call void @_ZN4llvm9StringRefC2EPKc(ptr noundef nonnull align 8 dereferenceable(16) %13, ptr noundef @.str.26)
  %131 = getelementptr inbounds nuw %"class.clang::format::BreakableComment", ptr %15, i32 0, i32 6
  call void @llvm.memcpy.p0.p0.i64(ptr align 8 %14, ptr align 8 %131, i64 16, i1 false)
  %132 = getelementptr inbounds nuw { ptr, i64 }, ptr %13, i32 0, i32 0
  %133 = load ptr, ptr %132, align 8
  %134 = getelementptr inbounds nuw { ptr, i64 }, ptr %13, i32 0, i32 1
  %135 = load i64, ptr %134, align 8
  call void @_ZN5clang6format17WhitespaceManager24replaceWhitespaceInTokenERKNS0_11FormatTokenEjjN4llvm9StringRefES6_bji(ptr noundef nonnull align 8 dereferenceable(2257) %123, ptr noundef nonnull align 8 dereferenceable(305) %128, i32 noundef %129, i32 noundef %130, ptr %133, i64 %135, ptr noundef byval(%"class.llvm::StringRef") align 8 %14, i1 noundef zeroext false, i32 noundef 0, i32 noundef 0)
  ret void
}