; Function Attrs: mustprogress nounwind uwtable
define dso_local void @_ZNK5clang6format27BreakableLineCommentSection6reflowEjRNS0_17WhitespaceManagerE(ptr nocapture noundef nonnull readonly align 8 dereferenceable(1712) %0, i32 noundef %1, ptr noundef nonnull align 8 dereferenceable(2257) %2) unnamed_addr #0 align 2 {
  %4 = alloca %"class.llvm::StringRef", align 8
  %.not = icmp eq i32 %1, 0
  br i1 %.not, label %.critedge, label %5

5:                                                ; preds = %3
  %6 = getelementptr inbounds nuw i8, ptr %0, i64 576
  %7 = zext i32 %1 to i64
  %8 = load ptr, ptr %6, align 8
  %9 = getelementptr inbounds ptr, ptr %8, i64 %7
  %10 = load ptr, ptr %9, align 8
  %11 = add i32 %1, -1
  %12 = zext i32 %11 to i64
  %13 = getelementptr inbounds ptr, ptr %8, i64 %12
  %14 = load ptr, ptr %13, align 8
  %.not24 = icmp eq ptr %10, %14
  br i1 %.not24, label %18, label %15

15:                                               ; preds = %5
  %16 = getelementptr inbounds nuw i8, ptr %0, i64 800
  %17 = load i32, ptr %16, align 8
  tail call void @_ZN5clang6format17WhitespaceManager17replaceWhitespaceERNS0_11FormatTokenEjjjbb(ptr noundef nonnull align 8 dereferenceable(2257) %2, ptr noundef nonnull align 8 dereferenceable(305) %10, i32 noundef 0, i32 noundef 0, i32 noundef %17, i1 noundef zeroext true, i1 noundef zeroext false) #21
  br label %.critedge

18:                                               ; preds = %5
  %19 = getelementptr inbounds nuw i8, ptr %0, i64 32
  %20 = load ptr, ptr %19, align 8
  %21 = getelementptr inbounds %"class.llvm::StringRef", ptr %20, i64 %12
  %22 = load ptr, ptr %21, align 8
  %23 = getelementptr inbounds nuw i8, ptr %21, i64 8
  %24 = load i64, ptr %23, align 8
  %25 = getelementptr inbounds i8, ptr %22, i64 %24
  %.not.i = icmp eq ptr %10, null
  %26 = getelementptr inbounds nuw i8, ptr %0, i64 8
  %.val.i = load ptr, ptr %26, align 8
  %27 = select i1 %.not.i, ptr %.val.i, ptr %14
  %28 = getelementptr inbounds nuw i8, ptr %27, i64 24
  %29 = load ptr, ptr %28, align 8
  %30 = ptrtoint ptr %25 to i64
  %31 = ptrtoint ptr %29 to i64
  %32 = sub i64 %30, %31
  %33 = trunc i64 %32 to i32
  %34 = getelementptr inbounds %"class.llvm::StringRef", ptr %20, i64 %7
  %35 = load ptr, ptr %34, align 8
  %36 = select i1 %.not.i, ptr %.val.i, ptr %10
  %37 = getelementptr inbounds nuw i8, ptr %36, i64 24
  %38 = load ptr, ptr %37, align 8
  %39 = ptrtoint ptr %35 to i64
  %40 = ptrtoint ptr %38 to i64
  %41 = add i64 %32, %40
  %42 = sub i64 %39, %41
  %43 = trunc i64 %42 to i32
  store ptr @.str.26, ptr %4, align 8
  %44 = getelementptr inbounds nuw i8, ptr %4, i64 8
  store i64 0, ptr %44, align 8
  tail call void @_ZN5clang6format17WhitespaceManager24replaceWhitespaceInTokenERKNS0_11FormatTokenEjjN4llvm9StringRefES6_bji(ptr noundef nonnull align 8 dereferenceable(2257) %2, ptr noundef nonnull align 8 dereferenceable(305) %10, i32 noundef %33, i32 noundef %43, ptr nonnull @.str.26, i64 0, ptr noundef nonnull byval(%"class.llvm::StringRef") align 8 %4, i1 noundef zeroext false, i32 noundef 0, i32 noundef 0) #21
  br label %.critedge

.critedge:                                        ; preds = %3, %18, %15
  %.pre-phi = phi i64 [ %7, %18 ], [ %7, %15 ], [ 0, %3 ]
  %45 = getelementptr inbounds nuw i8, ptr %0, i64 32
  %46 = load ptr, ptr %45, align 8
  %47 = getelementptr inbounds %"class.llvm::StringRef", ptr %46, i64 %.pre-phi
  %48 = load ptr, ptr %47, align 8
  %49 = getelementptr inbounds nuw i8, ptr %0, i64 576
  %50 = load ptr, ptr %49, align 8
  %51 = getelementptr inbounds ptr, ptr %50, i64 %.pre-phi
  %52 = load ptr, ptr %51, align 8
  %.not.i27 = icmp eq ptr %52, null
  %53 = getelementptr inbounds nuw i8, ptr %0, i64 8
  %.val.i28 = load ptr, ptr %53, align 8
  %54 = select i1 %.not.i27, ptr %.val.i28, ptr %52
  %55 = getelementptr inbounds nuw i8, ptr %54, i64 24
  %56 = load ptr, ptr %55, align 8
  %57 = ptrtoint ptr %48 to i64
  %58 = ptrtoint ptr %56 to i64
  %59 = sub i64 %57, %58
  %60 = trunc i64 %59 to i32
  %61 = getelementptr inbounds nuw i8, ptr %0, i64 304
  %62 = load ptr, ptr %61, align 8
  %63 = getelementptr inbounds %"class.llvm::StringRef", ptr %62, i64 %.pre-phi
  %64 = load ptr, ptr %63, align 8
  %65 = ptrtoint ptr %64 to i64
  %66 = sub i64 %65, %57
  %67 = trunc i64 %66 to i32
  %68 = getelementptr inbounds nuw i8, ptr %0, i64 808
  tail call void @_ZN5clang6format17WhitespaceManager24replaceWhitespaceInTokenERKNS0_11FormatTokenEjjN4llvm9StringRefES6_bji(ptr noundef nonnull align 8 dereferenceable(2257) %2, ptr noundef nonnull align 8 dereferenceable(305) %52, i32 noundef %60, i32 noundef %67, ptr nonnull @.str.26, i64 0, ptr noundef nonnull byval(%"class.llvm::StringRef") align 8 %68, i1 noundef zeroext false, i32 noundef 0, i32 noundef 0) #21
  ret void
}